target datalayout = "e-m:e-p270:32:32-p271:32:32-p272:64:64-i64:64-i128:128-f80:128-n8:16:32:64-S128"
target triple = "x86_64-pc-linux-gnu"

%"class.clang::QualType" = type { %"class.llvm::PointerIntPair.4" }
%"class.llvm::PointerIntPair.4" = type { %"struct.llvm::detail::PunnedPointer.5" }
%"struct.llvm::detail::PunnedPointer.5" = type { [8 x i8] }
%"class.clang::SourceLocation" = type { i32 }
%"class.clang::ast_matchers::internal::DynMatcherInterface.base" = type <{ ptr, %"class.llvm::ThreadSafeRefCountedBase" }>
%"class.llvm::ThreadSafeRefCountedBase" = type { %"struct.std::atomic" }
%"struct.std::atomic" = type { %"struct.std::__atomic_base" }
%"struct.std::__atomic_base" = type { i32 }
%"class.clang::ast_matchers::internal::Matcher" = type { %"class.clang::ast_matchers::internal::DynTypedMatcher" }
%"class.clang::ast_matchers::internal::DynTypedMatcher" = type { i8, %"class.clang::ASTNodeKind", %"class.clang::ASTNodeKind", %"class.llvm::IntrusiveRefCntPtr.349" }
%"class.clang::ASTNodeKind" = type { i32 }
%"class.llvm::IntrusiveRefCntPtr.349" = type { ptr }
%"class.clang::DynTypedNode" = type { %"class.clang::ASTNodeKind", [4 x i8], %"struct.llvm::AlignedCharArrayUnion" }
%"struct.llvm::AlignedCharArrayUnion" = type { [32 x i8] }
%"class.clang::Expr" = type { %"class.clang::ValueStmt", %"class.clang::QualType" }
%"class.clang::ValueStmt" = type { %"class.clang::Stmt" }
%"class.clang::Stmt" = type { %union.anon.350 }
%union.anon.350 = type { %"class.clang::Stmt::PseudoObjectExprBitfields" }
%"class.clang::Stmt::PseudoObjectExprBitfields" = type { i64 }
%"class.clang::(anonymous namespace)::internal::matcher_hasControllingExpr0Matcher" = type { %"class.clang::ast_matchers::internal::MatcherInterface.base.1210", %"class.clang::ast_matchers::internal::Matcher" }
%"class.clang::ast_matchers::internal::MatcherInterface.base.1210" = type { %"class.clang::ast_matchers::internal::DynMatcherInterface.base" }
%"class.clang::GenericSelectionExpr" = type <{ %"class.clang::Expr", i32, %"class.clang::SourceLocation", %"class.clang::SourceLocation", [4 x i8] }>

; Function Attrs: mustprogress nounwind uwtable
define linkonce_odr hidden void @_ZN5clang11ASTNodeKindC2Ev(ptr noundef nonnull align 4 dereferenceable(4) %0) unnamed_addr #0 comdat align 2 {
  %2 = alloca ptr, align 8
  store ptr %0, ptr %2, align 8
  %3 = load ptr, ptr %2, align 8
  %4 = getelementptr inbounds nuw %"class.clang::ASTNodeKind", ptr %3, i32 0, i32 0
  store i32 0, ptr %4, align 4
  ret void
}

; Function Attrs: mustprogress nounwind uwtable
define linkonce_odr hidden void @_ZN5clang12DynTypedNodeC2Ev(ptr noundef nonnull align 8 dereferenceable(40) %0) unnamed_addr #0 comdat align 2 {
  %2 = alloca ptr, align 8
  store ptr %0, ptr %2, align 8
  %3 = load ptr, ptr %2, align 8
  %4 = getelementptr inbounds nuw %"class.clang::DynTypedNode", ptr %3, i32 0, i32 0
  call void @_ZN5clang11ASTNodeKindC2Ev(ptr noundef nonnull align 4 dereferenceable(4) %4)
  ret void
}

; Function Attrs: mustprogress nounwind uwtable
define linkonce_odr hidden noundef ptr @_ZN4llvm16cast_convert_valIN5clang4ExprEPNS1_4StmtES4_E4doitEPKS3_(ptr noundef %0) #0 comdat align 2 {
  %2 = alloca ptr, align 8
  store ptr %0, ptr %2, align 8
  %3 = load ptr, ptr %2, align 8
  ret ptr %3
}

; Function Attrs: mustprogress nounwind uwtable
define linkonce_odr hidden noundef i64 @_ZN4llvm15TrailingObjectsIN5clang20GenericSelectionExprEJPNS1_4StmtEPNS1_14TypeSourceInfoEEE22callNumTrailingObjectsEPKS2_NS_25trailing_objects_internal19TrailingObjectsBase13OverloadTokenIS2_EE(ptr noundef %0) #0 comdat align 2 {
  %2 = alloca ptr, align 8
  store ptr %0, ptr %2, align 8
  ret i64 1
}

; Function Attrs: mustprogress nounwind uwtable
define linkonce_odr hidden noundef ptr @_ZN4llvm15TrailingObjectsIN5clang20GenericSelectionExprEJPNS1_4StmtEPNS1_14TypeSourceInfoEEE22getTrailingObjectsImplEPKS2_NS_25trailing_objects_internal19TrailingObjectsBase13OverloadTokenIS2_EE(ptr noundef %0) #0 comdat align 2 {
  %2 = alloca ptr, align 8
  store ptr %0, ptr %2, align 8
  %3 = load ptr, ptr %2, align 8
  ret ptr %3
}

; Function Attrs: mustprogress nounwind uwtable
define linkonce_odr hidden void @_ZN5clang12DynTypedNode19DynCastPtrConverterINS_4ExprENS_4StmtEE6createERKS3_(ptr dead_on_unwind noalias writable sret(%"class.clang::DynTypedNode") align 8 %0, ptr noundef nonnull align 8 dereferenceable(8) %1) #0 comdat align 2 {
  %3 = alloca ptr, align 8
  %4 = alloca %"class.clang::ASTNodeKind", align 4
  store ptr %1, ptr %3, align 8
  call void @_ZN5clang12DynTypedNodeC2Ev(ptr noundef nonnull align 8 dereferenceable(40) %0)
  %5 = load ptr, ptr %3, align 8
  %6 = call i32 @_ZN5clang11ASTNodeKind11getFromNodeERKNS_4StmtE(ptr noundef nonnull align 8 dereferenceable(8) %5)
  %7 = getelementptr inbounds nuw %"class.clang::ASTNodeKind", ptr %4, i32 0, i32 0
  store i32 %6, ptr %7, align 4
  %8 = getelementptr inbounds nuw %"class.clang::DynTypedNode", ptr %0, i32 0, i32 0
  call void @llvm.memcpy.p0.p0.i64(ptr align 8 %8, ptr align 4 %4, i64 4, i1 false)
  %9 = getelementptr inbounds nuw %"class.clang::DynTypedNode", ptr %0, i32 0, i32 2
  %10 = load ptr, ptr %3, align 8
  store ptr %10, ptr %9, align 8
  ret void
}

; Function Attrs: mustprogress nounwind uwtable
define linkonce_odr hidden noundef ptr @_ZN4llvm8CastInfoIN5clang4ExprEPNS1_4StmtEvE6doCastERKS4_(ptr noundef nonnull align 8 dereferenceable(8) %0) #0 comdat align 2 {
  %2 = alloca ptr, align 8
  store ptr %0, ptr %2, align 8
  %3 = load ptr, ptr %2, align 8
  %4 = load ptr, ptr %3, align 8
  %5 = call noundef ptr @_ZN4llvm16cast_convert_valIN5clang4ExprEPNS1_4StmtES4_E4doitEPKS3_(ptr noundef %4)
  ret ptr %5
}

; Function Attrs: mustprogress nounwind uwtable
define linkonce_odr hidden noundef ptr @_ZN4llvm25trailing_objects_internal19TrailingObjectsImplILi8EN5clang20GenericSelectionExprENS_15TrailingObjectsIS3_JPNS2_4StmtEPNS2_14TypeSourceInfoEEEES3_JS6_S8_EE22getTrailingObjectsImplEPKS3_NS0_19TrailingObjectsBase13OverloadTokenIS6_EE(ptr noundef %0) #0 comdat align 2 {
  %2 = alloca ptr, align 8
  %3 = alloca ptr, align 8
  store ptr %0, ptr %2, align 8
  %4 = load ptr, ptr %2, align 8
  %5 = call noundef ptr @_ZN4llvm15TrailingObjectsIN5clang20GenericSelectionExprEJPNS1_4StmtEPNS1_14TypeSourceInfoEEE22getTrailingObjectsImplEPKS2_NS_25trailing_objects_internal19TrailingObjectsBase13OverloadTokenIS2_EE(ptr noundef %4)
  %6 = load ptr, ptr %2, align 8
  %7 = call noundef i64 @_ZN4llvm15TrailingObjectsIN5clang20GenericSelectionExprEJPNS1_4StmtEPNS1_14TypeSourceInfoEEE22callNumTrailingObjectsEPKS2_NS_25trailing_objects_internal19TrailingObjectsBase13OverloadTokenIS2_EE(ptr noundef %6)
  %8 = getelementptr inbounds %"class.clang::GenericSelectionExpr", ptr %5, i64 %7
  store ptr %8, ptr %3, align 8
  %9 = load ptr, ptr %3, align 8
  ret ptr %9
}

; Function Attrs: mustprogress nounwind uwtable
define linkonce_odr hidden void @_ZN4llvm15TrailingObjectsIN5clang20GenericSelectionExprEJPNS1_4StmtEPNS1_14TypeSourceInfoEEE31verifyTrailingObjectsAssertionsEv() #0 comdat align 2 {
  ret void
}

; Function Attrs: mustprogress nounwind uwtable
define linkonce_odr hidden void @_ZN5clang12DynTypedNode6createINS_4ExprEEES0_RKT_(ptr dead_on_unwind noalias writable sret(%"class.clang::DynTypedNode") align 8 %0, ptr noundef nonnull align 8 dereferenceable(16) %1) #0 comdat align 2 {
  %3 = alloca ptr, align 8
  store ptr %1, ptr %3, align 8
  %4 = load ptr, ptr %3, align 8
  call void @_ZN5clang12DynTypedNode19DynCastPtrConverterINS_4ExprENS_4StmtEE6createERKS3_(ptr dead_on_unwind writable sret(%"class.clang::DynTypedNode") align 8 %0, ptr noundef nonnull align 8 dereferenceable(8) %4)
  ret void
}

; Function Attrs: mustprogress nounwind uwtable
define linkonce_odr hidden noundef ptr @_ZN4llvm4castIN5clang4ExprENS1_4StmtEEEDcPT0_(ptr noundef %0) #0 comdat {
  %2 = alloca ptr, align 8
  store ptr %0, ptr %2, align 8
  %3 = call noundef ptr @_ZN4llvm8CastInfoIN5clang4ExprEPNS1_4StmtEvE6doCastERKS4_(ptr noundef nonnull align 8 dereferenceable(8) %2)
  ret ptr %3
}

; Function Attrs: mustprogress nounwind uwtable
define linkonce_odr hidden noundef i32 @_ZNK5clang20GenericSelectionExpr31getIndexOfControllingExpressionEv(ptr noundef nonnull align 8 dereferenceable(32) %0) #0 comdat align 2 {
  %2 = alloca ptr, align 8
  store ptr %0, ptr %2, align 8
  ret i32 0
}

; Function Attrs: mustprogress nounwind uwtable
define linkonce_odr hidden noundef ptr @_ZNK4llvm15TrailingObjectsIN5clang20GenericSelectionExprEJPNS1_4StmtEPNS1_14TypeSourceInfoEEE18getTrailingObjectsIS4_EEPKT_v(ptr noundef nonnull align 8 dereferenceable(8) %0) #0 comdat align 2 {
  %2 = alloca ptr, align 8
  store ptr %0, ptr %2, align 8
  %3 = load ptr, ptr %2, align 8
  call void @_ZN4llvm15TrailingObjectsIN5clang20GenericSelectionExprEJPNS1_4StmtEPNS1_14TypeSourceInfoEEE31verifyTrailingObjectsAssertionsEv()
  %4 = call noundef ptr @_ZN4llvm25trailing_objects_internal19TrailingObjectsImplILi8EN5clang20GenericSelectionExprENS_15TrailingObjectsIS3_JPNS2_4StmtEPNS2_14TypeSourceInfoEEEES3_JS6_S8_EE22getTrailingObjectsImplEPKS3_NS0_19TrailingObjectsBase13OverloadTokenIS6_EE(ptr noundef %3)
  ret ptr %4
}

; Function Attrs: mustprogress nounwind uwtable
define linkonce_odr hidden noundef zeroext i1 @_ZNK5clang12ast_matchers8internal7MatcherINS_4ExprEE7matchesERKS3_PNS1_14ASTMatchFinderEPNS1_21BoundNodesTreeBuilderE(ptr noundef nonnull align 8 dereferenceable(24) %0, ptr noundef nonnull align 8 dereferenceable(16) %1, ptr noundef %2, ptr noundef %3) #0 comdat align 2 {
  %5 = alloca ptr, align 8
  %6 = alloca ptr, align 8
  %7 = alloca ptr, align 8
  %8 = alloca ptr, align 8
  %9 = alloca %"class.clang::DynTypedNode", align 8
  store ptr %0, ptr %5, align 8
  store ptr %1, ptr %6, align 8
  store ptr %2, ptr %7, align 8
  store ptr %3, ptr %8, align 8
  %10 = load ptr, ptr %5, align 8
  %11 = getelementptr inbounds nuw %"class.clang::ast_matchers::internal::Matcher", ptr %10, i32 0, i32 0
  %12 = load ptr, ptr %6, align 8
  call void @_ZN5clang12DynTypedNode6createINS_4ExprEEES0_RKT_(ptr dead_on_unwind writable sret(%"class.clang::DynTypedNode") align 8 %9, ptr noundef nonnull align 8 dereferenceable(16) %12)
  %13 = load ptr, ptr %7, align 8
  %14 = load ptr, ptr %8, align 8
  %15 = call noundef zeroext i1 @_ZNK5clang12ast_matchers8internal15DynTypedMatcher7matchesERKNS_12DynTypedNodeEPNS1_14ASTMatchFinderEPNS1_21BoundNodesTreeBuilderE(ptr noundef nonnull align 8 dereferenceable(24) %11, ptr noundef nonnull align 8 dereferenceable(40) %9, ptr noundef %13, ptr noundef %14)
  ret i1 %15
}

; Function Attrs: mustprogress nounwind uwtable
define linkonce_odr hidden noundef ptr @_ZNK5clang20GenericSelectionExpr18getControllingExprEv(ptr noundef nonnull align 8 dereferenceable(32) %0) #0 comdat align 2 {
  %2 = alloca ptr, align 8
  store ptr %0, ptr %2, align 8
  %3 = load ptr, ptr %2, align 8
  %4 = call noundef ptr @_ZNK4llvm15TrailingObjectsIN5clang20GenericSelectionExprEJPNS1_4StmtEPNS1_14TypeSourceInfoEEE18getTrailingObjectsIS4_EEPKT_v(ptr noundef nonnull align 8 dereferenceable(8) %3)
  %5 = call noundef i32 @_ZNK5clang20GenericSelectionExpr31getIndexOfControllingExpressionEv(ptr noundef nonnull align 8 dereferenceable(32) %3)
  %6 = zext i32 %5 to i64
  %7 = getelementptr inbounds ptr, ptr %4, i64 %6
  %8 = load ptr, ptr %7, align 8
  %9 = call noundef ptr @_ZN4llvm4castIN5clang4ExprENS1_4StmtEEEDcPT0_(ptr noundef %8)
  ret ptr %9
}

; Function Attrs: mustprogress nounwind uwtable
define linkonce_odr hidden noundef zeroext i1 @_ZNK5clang20GenericSelectionExpr15isTypePredicateEv(ptr noundef nonnull align 8 dereferenceable(32) %0) #0 comdat align 2 {
  %2 = alloca ptr, align 8
  store ptr %0, ptr %2, align 8
  %3 = load ptr, ptr %2, align 8
  %4 = getelementptr inbounds nuw %"class.clang::GenericSelectionExpr", ptr %3, i32 0, i32 1
  %5 = load i32, ptr %4, align 8
  %6 = lshr i32 %5, 30
  %7 = and i32 %6, 1
  %8 = icmp ne i32 %7, 0
  %9 = xor i1 %8, true
  ret i1 %9
}

; Function Attrs: mustprogress nounwind uwtable
define internal noundef zeroext i1 @_ZNK5clang12_GLOBAL__N_18internal34matcher_hasControllingExpr0Matcher7matchesERKNS_20GenericSelectionExprEPNS_12ast_matchers8internal14ASTMatchFinderEPNS7_21BoundNodesTreeBuilderE(ptr noundef nonnull align 8 dereferenceable(40) %0, ptr noundef nonnull align 8 dereferenceable(32) %1, ptr noundef %2, ptr noundef %3) unnamed_addr #0 align 2 {
  %5 = alloca i1, align 1
  %6 = alloca ptr, align 8
  %7 = alloca ptr, align 8
  %8 = alloca ptr, align 8
  %9 = alloca ptr, align 8
  store ptr %0, ptr %6, align 8
  store ptr %1, ptr %7, align 8
  store ptr %2, ptr %8, align 8
  store ptr %3, ptr %9, align 8
  %10 = load ptr, ptr %6, align 8
  %11 = load ptr, ptr %7, align 8
  %12 = call noundef zeroext i1 @_ZNK5clang20GenericSelectionExpr15isTypePredicateEv(ptr noundef nonnull align 8 dereferenceable(32) %11)
  br i1 %12, label %13, label %14

13:                                               ; preds = %4
  store i1 false, ptr %5, align 1
  br label %21

14:                                               ; preds = %4
  %15 = getelementptr inbounds nuw %"class.clang::(anonymous namespace)::internal::matcher_hasControllingExpr0Matcher", ptr %10, i32 0, i32 1
  %16 = load ptr, ptr %7, align 8
  %17 = call noundef ptr @_ZNK5clang20GenericSelectionExpr18getControllingExprEv(ptr noundef nonnull align 8 dereferenceable(32) %16)
  %18 = load ptr, ptr %8, align 8
  %19 = load ptr, ptr %9, align 8
  %20 = call noundef zeroext i1 @_ZNK5clang12ast_matchers8internal7MatcherINS_4ExprEE7matchesERKS3_PNS1_14ASTMatchFinderEPNS1_21BoundNodesTreeBuilderE(ptr noundef nonnull align 8 dereferenceable(24) %15, ptr noundef nonnull align 8 dereferenceable(16) %17, ptr noundef %18, ptr noundef %19)
  store i1 %20, ptr %5, align 1
  br label %21

21:                                               ; preds = %14, %13
  %22 = load i1, ptr %5, align 1
  ret i1 %22
}