; Function Attrs: mustprogress nounwind uwtable
define internal noundef zeroext i1 @_ZNK5clang12_GLOBAL__N_18internal34matcher_hasControllingExpr0Matcher7matchesERKNS_20GenericSelectionExprEPNS_12ast_matchers8internal14ASTMatchFinderEPNS7_21BoundNodesTreeBuilderE(ptr noundef nonnull align 8 dereferenceable(40) %0, ptr noundef nonnull readonly align 8 captures(none) dereferenceable(32) %1, ptr noundef %2, ptr noundef %3) unnamed_addr #0 align 2 {
  %5 = alloca %"class.clang::DynTypedNode", align 8
  %6 = getelementptr inbounds nuw i8, ptr %1, i64 16
  %7 = load i32, ptr %6, align 8
  %8 = and i32 %7, 1073741824
  %.not.i = icmp eq i32 %8, 0
  br i1 %.not.i, label %16, label %9

9:                                                ; preds = %4
  %10 = getelementptr inbounds nuw i8, ptr %0, i64 16
  %11 = getelementptr inbounds nuw i8, ptr %1, i64 32
  %12 = load ptr, ptr %11, align 8
  call void @llvm.lifetime.start.p0(i64 40, ptr nonnull %5)
  tail call void @llvm.experimental.noalias.scope.decl(metadata !3083)
  tail call void @llvm.experimental.noalias.scope.decl(metadata !3086)
  %13 = tail call i32 @_ZN5clang11ASTNodeKind11getFromNodeERKNS_4StmtE(ptr noundef nonnull align 8 dereferenceable(16) %12) #20, !noalias !3089
  store i32 %13, ptr %5, align 8, !alias.scope !3089
  %14 = getelementptr inbounds nuw i8, ptr %5, i64 8
  store ptr %12, ptr %14, align 8, !alias.scope !3089
  %15 = call noundef zeroext i1 @_ZNK5clang12ast_matchers8internal15DynTypedMatcher7matchesERKNS_12DynTypedNodeEPNS1_14ASTMatchFinderEPNS1_21BoundNodesTreeBuilderE(ptr noundef nonnull align 8 dereferenceable(24) %10, ptr noundef nonnull align 8 dereferenceable(40) %5, ptr noundef %2, ptr noundef %3) #20
  call void @llvm.lifetime.end.p0(i64 40, ptr nonnull %5)
  br label %16

16:                                               ; preds = %4, %9
  %.0 = phi i1 [ %15, %9 ], [ false, %4 ]
  ret i1 %.0
}